target datalayout = "e-m:e-p270:32:32-p271:32:32-p272:64:64-i64:64-i128:128-f80:128-n8:16:32:64-S128"
target triple = "x86_64-pc-linux-gnu"

@.str = private unnamed_addr constant [38 x i8] c"Expected number for %s but found: %s\0A\00", align 1
@.str.1 = private unnamed_addr constant [53 x i8] c"The value for %s was %s which is not within %f - %f\0A\00", align 1
@.str.2 = private unnamed_addr constant [36 x i8] c"Expected int64 for %s but found %s\0A\00", align 1
@.str.3 = private unnamed_addr constant [34 x i8] c"Expected int for %s but found %s\0A\00", align 1

; Function Attrs: nounwind uwtable
define i32 @parse_number(ptr noundef %0, ptr noundef %1, i32 noundef %2, double noundef %3, double noundef %4, ptr noundef %5) #0 {
  %7 = alloca i32, align 4
  %8 = alloca ptr, align 8
  %9 = alloca ptr, align 8
  %10 = alloca i32, align 4
  %11 = alloca double, align 8
  %12 = alloca double, align 8
  %13 = alloca ptr, align 8
  %14 = alloca ptr, align 8
  %15 = alloca ptr, align 8
  %16 = alloca double, align 8
  %17 = alloca i32, align 4
  store ptr %0, ptr %8, align 8, !tbaa !10
  store ptr %1, ptr %9, align 8, !tbaa !10
  store i32 %2, ptr %10, align 4, !tbaa !8
  store double %3, ptr %11, align 8, !tbaa !16
  store double %4, ptr %12, align 8, !tbaa !16
  store ptr %5, ptr %13, align 8, !tbaa !18
  call void @llvm.lifetime.start.p0(i64 8, ptr %14) #11
  call void @llvm.lifetime.start.p0(i64 8, ptr %15) #11
  call void @llvm.lifetime.start.p0(i64 8, ptr %16) #11
  %18 = load ptr, ptr %9, align 8, !tbaa !10
  %19 = call nsz double @av_strtod(ptr noundef %18, ptr noundef %14)
  store double %19, ptr %16, align 8, !tbaa !16
  %20 = load ptr, ptr %14, align 8, !tbaa !10
  %21 = load i8, ptr %20, align 1, !tbaa !20
  %22 = icmp ne i8 %21, 0
  br i1 %22, label %23, label %24

23:                                               ; preds = %6
  store ptr @.str, ptr %15, align 8, !tbaa !10
  br label %59

24:                                               ; preds = %6
  %25 = load double, ptr %16, align 8, !tbaa !16
  %26 = load double, ptr %11, align 8, !tbaa !16
  %27 = fcmp nsz olt double %25, %26
  br i1 %27, label %32, label %28

28:                                               ; preds = %24
  %29 = load double, ptr %16, align 8, !tbaa !16
  %30 = load double, ptr %12, align 8, !tbaa !16
  %31 = fcmp nsz ogt double %29, %30
  br i1 %31, label %32, label %33

32:                                               ; preds = %28, %24
  store ptr @.str.1, ptr %15, align 8, !tbaa !10
  br label %58

33:                                               ; preds = %28
  %34 = load i32, ptr %10, align 4, !tbaa !8
  %35 = icmp eq i32 %34, 4
  br i1 %35, label %36, label %43

36:                                               ; preds = %33
  %37 = load double, ptr %16, align 8, !tbaa !16
  %38 = fptosi double %37 to i64
  %39 = sitofp i64 %38 to double
  %40 = load double, ptr %16, align 8, !tbaa !16
  %41 = fcmp nsz une double %39, %40
  br i1 %41, label %42, label %43

42:                                               ; preds = %36
  store ptr @.str.2, ptr %15, align 8, !tbaa !10
  br label %57

43:                                               ; preds = %36, %33
  %44 = load i32, ptr %10, align 4, !tbaa !8
  %45 = icmp eq i32 %44, 3
  br i1 %45, label %46, label %53

46:                                               ; preds = %43
  %47 = load double, ptr %16, align 8, !tbaa !16
  %48 = fptosi double %47 to i32
  %49 = sitofp i32 %48 to double
  %50 = load double, ptr %16, align 8, !tbaa !16
  %51 = fcmp nsz une double %49, %50
  br i1 %51, label %52, label %53

52:                                               ; preds = %46
  store ptr @.str.3, ptr %15, align 8, !tbaa !10
  br label %56

53:                                               ; preds = %46, %43
  %54 = load double, ptr %16, align 8, !tbaa !16
  %55 = load ptr, ptr %13, align 8, !tbaa !18
  store double %54, ptr %55, align 8, !tbaa !16
  store i32 0, ptr %7, align 4
  store i32 1, ptr %17, align 4
  br label %65

56:                                               ; preds = %52
  br label %57

57:                                               ; preds = %56, %42
  br label %58

58:                                               ; preds = %57, %32
  br label %59

59:                                               ; preds = %58, %23
  %60 = load ptr, ptr %15, align 8, !tbaa !10
  %61 = load ptr, ptr %8, align 8, !tbaa !10
  %62 = load ptr, ptr %9, align 8, !tbaa !10
  %63 = load double, ptr %11, align 8, !tbaa !16
  %64 = load double, ptr %12, align 8, !tbaa !16
  call void (ptr, i32, ptr, ...) @av_log(ptr noundef null, i32 noundef 8, ptr noundef %60, ptr noundef %61, ptr noundef %62, double noundef %63, double noundef %64)
  store i32 -22, ptr %7, align 4
  store i32 1, ptr %17, align 4
  br label %65

65:                                               ; preds = %59, %53
  call void @llvm.lifetime.end.p0(i64 8, ptr %16) #11
  call void @llvm.lifetime.end.p0(i64 8, ptr %15) #11
  call void @llvm.lifetime.end.p0(i64 8, ptr %14) #11
  %66 = load i32, ptr %7, align 4
  ret i32 %66
}