; Function Attrs: nounwind uwtable
define range(i32 -22, 1) i32 @parse_number(ptr noundef %0, ptr noundef %1, i32 noundef %2, double noundef %3, double noundef %4, ptr noundef writeonly captures(none) %5) local_unnamed_addr #0 {
  %7 = alloca ptr, align 8
  call void @llvm.lifetime.start.p0(i64 8, ptr nonnull %7) #15
  %8 = call nsz double @av_strtod(ptr noundef %1, ptr noundef nonnull %7) #15
  %9 = load ptr, ptr %7, align 8, !tbaa !9
  %10 = load i8, ptr %9, align 1, !tbaa !11
  %.not = icmp eq i8 %10, 0
  br i1 %.not, label %11, label %24

11:                                               ; preds = %6
  %12 = fcmp nsz olt double %8, %3
  %13 = fcmp nsz ogt double %8, %4
  %or.cond = or i1 %12, %13
  br i1 %or.cond, label %24, label %14

14:                                               ; preds = %11
  switch i32 %2, label %23 [
    i32 4, label %15
    i32 3, label %19
  ]

15:                                               ; preds = %14
  %16 = fptosi double %8 to i64
  %17 = sitofp i64 %16 to double
  %18 = fcmp nsz une double %8, %17
  br i1 %18, label %24, label %23

19:                                               ; preds = %14
  %20 = fptosi double %8 to i32
  %21 = sitofp i32 %20 to double
  %22 = fcmp nsz une double %8, %21
  br i1 %22, label %24, label %23

23:                                               ; preds = %15, %14, %19
  store double %8, ptr %5, align 8, !tbaa !12
  br label %25

24:                                               ; preds = %19, %15, %11, %6
  %.018 = phi ptr [ @.str, %6 ], [ @.str.1, %11 ], [ @.str.2, %15 ], [ @.str.3, %19 ]
  call void (ptr, i32, ptr, ...) @av_log(ptr noundef null, i32 noundef 8, ptr noundef nonnull %.018, ptr noundef %0, ptr noundef %1, double noundef %3, double noundef %4) #15
  br label %25

25:                                               ; preds = %24, %23
  %.0 = phi i32 [ -22, %24 ], [ 0, %23 ]
  call void @llvm.lifetime.end.p0(i64 8, ptr nonnull %7) #15
  ret i32 %.0
}